target datalayout = "e-m:e-p270:32:32-p271:32:32-p272:64:64-i64:64-i128:128-f80:128-n8:16:32:64-S128"
target triple = "x86_64-unknown-linux-gnu"

%"class.spacer::manager" = type { ptr, %"class.spacer::sym_mux" }
%"class.spacer::sym_mux" = type { ptr, %class.obj_map.131, %class.obj_map.136 }
%class.obj_map.131 = type { %class.core_hashtable.132 }
%class.core_hashtable.132 = type <{ ptr, i32, i32, i32, [4 x i8] }>
%class.obj_map.136 = type { %class.core_hashtable.137 }
%class.core_hashtable.137 = type <{ ptr, i32, i32, i32, [4 x i8] }>

; Function Attrs: mustprogress nounwind uwtable
define linkonce_odr hidden noundef i32 @_ZNK6spacer7manager7n_indexEv(ptr noundef nonnull align 8 dereferenceable(64) %this) #5 comdat align 2 {
entry:
  %this.addr = alloca ptr, align 8
  store ptr %this, ptr %this.addr, align 8
  ret i32 0
}

; Function Attrs: mustprogress uwtable
define hidden noundef ptr @_ZN6spacer7manager10get_n_predEP9func_decl(ptr noundef nonnull align 8 dereferenceable(64) %this, ptr noundef %s) #4 align 2 {
entry:
  %this.addr = alloca ptr, align 8
  %s.addr = alloca ptr, align 8
  %res = alloca ptr, align 8
  store ptr %this, ptr %this.addr, align 8
  store ptr %s, ptr %s.addr, align 8
  %this1 = load ptr, ptr %this.addr, align 8
  %m_mux = getelementptr inbounds %"class.spacer::manager", ptr %this1, i32 0, i32 1
  %0 = load ptr, ptr %s.addr, align 8
  %call = call noundef i32 @_ZNK6spacer7manager7n_indexEv(ptr noundef nonnull align 8 dereferenceable(64) %this1)
  %call2 = call noundef ptr @_ZNK6spacer7sym_mux12find_by_declEP9func_declj(ptr noundef nonnull align 8 dereferenceable(56) %m_mux, ptr noundef %0, i32 noundef %call)
  store ptr %call2, ptr %res, align 8
  %1 = load ptr, ptr %res, align 8
  %tobool = icmp ne ptr %1, null
  br i1 %tobool, label %if.end, label %if.then

if.then:                                          ; preds = %entry
  %m_mux3 = getelementptr inbounds %"class.spacer::manager", ptr %this1, i32 0, i32 1
  %2 = load ptr, ptr %s.addr, align 8
  call void @_ZN6spacer7sym_mux13register_declEP9func_decl(ptr noundef nonnull align 8 dereferenceable(56) %m_mux3, ptr noundef %2)
  %m_mux4 = getelementptr inbounds %"class.spacer::manager", ptr %this1, i32 0, i32 1
  %3 = load ptr, ptr %s.addr, align 8
  %call5 = call noundef i32 @_ZNK6spacer7manager7n_indexEv(ptr noundef nonnull align 8 dereferenceable(64) %this1)
  %call6 = call noundef ptr @_ZNK6spacer7sym_mux12find_by_declEP9func_declj(ptr noundef nonnull align 8 dereferenceable(56) %m_mux4, ptr noundef %3, i32 noundef %call5)
  store ptr %call6, ptr %res, align 8
  br label %if.end

if.end:                                           ; preds = %if.then, %entry
  %4 = load ptr, ptr %res, align 8
  ret ptr %4
}